target datalayout = "e-m:e-p270:32:32-p271:32:32-p272:64:64-i64:64-i128:128-f80:128-n8:16:32:64-S128"
target triple = "x86_64-pc-linux-gnu"

%struct.rb_data_type_struct = type { ptr, %struct.anon, ptr, ptr, i64 }
%struct.anon = type { ptr, ptr, ptr, ptr, [1 x ptr] }

@ossl_x509_type = internal constant %struct.rb_data_type_struct { ptr @.str.34, %struct.anon { ptr null, ptr @ossl_x509_free, ptr null, ptr null, [1 x ptr] zeroinitializer }, ptr null, ptr null, i64 33 }, align 8
@rb_eRuntimeError = external global i64, align 8
@.str = private unnamed_addr constant [25 x i8] c"CERT wasn't initialized!\00", align 1

; Function Attrs: nounwind sspstrong uwtable
define internal i64 @ossl_x509_set_serial(i64 noundef %0, i64 noundef %1) #0 {
  %3 = alloca i64, align 8
  %4 = alloca i64, align 8
  %5 = alloca ptr, align 8
  store i64 %0, ptr %3, align 8, !tbaa !11
  store i64 %1, ptr %4, align 8, !tbaa !11
  call void @llvm.lifetime.start.p0(i64 8, ptr %5) #15
  br label %6

6:                                                ; preds = %2
  %7 = load i64, ptr %3, align 8, !tbaa !11
  %8 = call ptr @rb_check_typeddata(i64 noundef %7, ptr noundef @ossl_x509_type)
  store ptr %8, ptr %5, align 8, !tbaa !6
  %9 = load ptr, ptr %5, align 8, !tbaa !6
  %10 = icmp ne ptr %9, null
  br i1 %10, label %13, label %11

11:                                               ; preds = %6
  %12 = load i64, ptr @rb_eRuntimeError, align 8, !tbaa !11
  call void (i64, ptr, ...) @ossl_raise(i64 noundef %12, ptr noundef @.str) #16
  unreachable

13:                                               ; preds = %6
  br label %14

14:                                               ; preds = %13
  br label %15

15:                                               ; preds = %14
  %16 = load ptr, ptr %5, align 8, !tbaa !6
  %17 = load i64, ptr %4, align 8, !tbaa !11
  %18 = load ptr, ptr %5, align 8, !tbaa !6
  %19 = call ptr @X509_get_serialNumber(ptr noundef %18)
  %20 = call ptr @num_to_asn1integer(i64 noundef %17, ptr noundef %19)
  %21 = call i32 @X509_set_serialNumber(ptr noundef %16, ptr noundef %20)
  %22 = load i64, ptr %4, align 8, !tbaa !11
  call void @llvm.lifetime.end.p0(i64 8, ptr %5) #15
  ret i64 %22
}