; Function Attrs: nounwind sspstrong uwtable
define internal noundef i64 @ossl_x509_set_serial(i64 noundef %0, i64 noundef returned %1) #0 {
  %3 = tail call ptr @rb_check_typeddata(i64 noundef %0, ptr noundef nonnull @ossl_x509_type) #5
  %.not = icmp eq ptr %3, null
  br i1 %.not, label %4, label %6

4:                                                ; preds = %2
  %5 = load i64, ptr @rb_eRuntimeError, align 8, !tbaa !6
  tail call void (i64, ptr, ...) @ossl_raise(i64 noundef %5, ptr noundef nonnull @.str) #6
  unreachable

6:                                                ; preds = %2
  %7 = tail call ptr @X509_get_serialNumber(ptr noundef nonnull %3) #5
  %8 = tail call ptr @num_to_asn1integer(i64 noundef %1, ptr noundef %7) #5
  %9 = tail call i32 @X509_set_serialNumber(ptr noundef nonnull %3, ptr noundef %8) #5
  ret i64 %1
}